target datalayout = "e-m:e-p270:32:32-p271:32:32-p272:64:64-i64:64-i128:128-f80:128-n8:16:32:64-S128"
target triple = "x86_64-pc-linux-gnu"

%struct._object = type { i64, ptr }

@.str.17 = private unnamed_addr constant [6 x i8] c"iiiiO\00", align 1

; Function Attrs: inlinehint mustprogress uwtable
define internal void @_ZL10_Py_DECREFP7_object(ptr noundef %0) #6 {
  %2 = alloca ptr, align 8
  store ptr %0, ptr %2, align 8, !tbaa !3
  %3 = load ptr, ptr %2, align 8, !tbaa !3
  %4 = getelementptr inbounds nuw %struct._object, ptr %3, i32 0, i32 0
  %5 = load i64, ptr %4, align 8, !tbaa !35
  %6 = add nsw i64 %5, -1
  store i64 %6, ptr %4, align 8, !tbaa !35
  %7 = icmp ne i64 %6, 0
  br i1 %7, label %8, label %9

8:                                                ; preds = %1
  br label %11

9:                                                ; preds = %1
  %10 = load ptr, ptr %2, align 8, !tbaa !3
  call void @_Py_Dealloc(ptr noundef %10)
  br label %11

11:                                               ; preds = %9, %8
  ret void
}

; Function Attrs: mustprogress uwtable
define internal void @_ZL7OnMouseiiiiPv(i32 noundef %0, i32 noundef %1, i32 noundef %2, i32 noundef %3, ptr noundef %4) #0 {
  %6 = alloca i32, align 4
  %7 = alloca i32, align 4
  %8 = alloca i32, align 4
  %9 = alloca i32, align 4
  %10 = alloca ptr, align 8
  %11 = alloca i32, align 4
  %12 = alloca ptr, align 8
  %13 = alloca ptr, align 8
  %14 = alloca ptr, align 8
  store i32 %0, ptr %6, align 4, !tbaa !50
  store i32 %1, ptr %7, align 4, !tbaa !50
  store i32 %2, ptr %8, align 4, !tbaa !50
  store i32 %3, ptr %9, align 4, !tbaa !50
  store ptr %4, ptr %10, align 8, !tbaa !52
  call void @llvm.lifetime.start.p0(i64 4, ptr %11) #4
  %15 = call i32 @PyGILState_Ensure()
  store i32 %15, ptr %11, align 4, !tbaa !53
  call void @llvm.lifetime.start.p0(i64 8, ptr %12) #4
  %16 = load ptr, ptr %10, align 8, !tbaa !52
  store ptr %16, ptr %12, align 8, !tbaa !3
  call void @llvm.lifetime.start.p0(i64 8, ptr %13) #4
  %17 = load i32, ptr %6, align 4, !tbaa !50
  %18 = load i32, ptr %7, align 4, !tbaa !50
  %19 = load i32, ptr %8, align 4, !tbaa !50
  %20 = load i32, ptr %9, align 4, !tbaa !50
  %21 = load ptr, ptr %12, align 8, !tbaa !3
  %22 = call ptr @PyTuple_GetItem(ptr noundef %21, i64 noundef 1)
  %23 = call ptr (ptr, ...) @Py_BuildValue(ptr noundef @.str.17, i32 noundef %17, i32 noundef %18, i32 noundef %19, i32 noundef %20, ptr noundef %22)
  store ptr %23, ptr %13, align 8, !tbaa !3
  call void @llvm.lifetime.start.p0(i64 8, ptr %14) #4
  %24 = load ptr, ptr %12, align 8, !tbaa !3
  %25 = call ptr @PyTuple_GetItem(ptr noundef %24, i64 noundef 0)
  %26 = load ptr, ptr %13, align 8, !tbaa !3
  %27 = call ptr @PyObject_Call(ptr noundef %25, ptr noundef %26, ptr noundef null)
  store ptr %27, ptr %14, align 8, !tbaa !3
  %28 = load ptr, ptr %14, align 8, !tbaa !3
  %29 = icmp eq ptr %28, null
  br i1 %29, label %30, label %31

30:                                               ; preds = %5
  call void @PyErr_Print()
  br label %33

31:                                               ; preds = %5
  %32 = load ptr, ptr %14, align 8, !tbaa !3
  call void @_ZL10_Py_DECREFP7_object(ptr noundef %32)
  br label %33

33:                                               ; preds = %31, %30
  %34 = load ptr, ptr %13, align 8, !tbaa !3
  call void @_ZL10_Py_DECREFP7_object(ptr noundef %34)
  %35 = load i32, ptr %11, align 4, !tbaa !53
  call void @PyGILState_Release(i32 noundef %35)
  call void @llvm.lifetime.end.p0(i64 8, ptr %14) #4
  call void @llvm.lifetime.end.p0(i64 8, ptr %13) #4
  call void @llvm.lifetime.end.p0(i64 8, ptr %12) #4
  call void @llvm.lifetime.end.p0(i64 4, ptr %11) #4
  ret void
}