; Function Attrs: mustprogress uwtable
define internal void @_ZL7OnMouseiiiiPv(i32 noundef %0, i32 noundef %1, i32 noundef %2, i32 noundef %3, ptr noundef %4) #0 {
  %6 = tail call i32 @PyGILState_Ensure()
  %7 = tail call ptr @PyTuple_GetItem(ptr noundef %4, i64 noundef 1)
  %8 = tail call ptr (ptr, ...) @Py_BuildValue(ptr noundef nonnull @.str.17, i32 noundef %0, i32 noundef %1, i32 noundef %2, i32 noundef %3, ptr noundef %7)
  %9 = tail call ptr @PyTuple_GetItem(ptr noundef %4, i64 noundef 0)
  %10 = tail call ptr @PyObject_Call(ptr noundef %9, ptr noundef %8, ptr noundef null)
  %11 = icmp eq ptr %10, null
  br i1 %11, label %12, label %13

12:                                               ; preds = %5
  tail call void @PyErr_Print()
  br label %_ZL10_Py_DECREFP7_object.exit

13:                                               ; preds = %5
  %14 = load i64, ptr %10, align 8, !tbaa !33
  %15 = add nsw i64 %14, -1
  store i64 %15, ptr %10, align 8, !tbaa !33
  %.not.i = icmp eq i64 %15, 0
  br i1 %.not.i, label %16, label %_ZL10_Py_DECREFP7_object.exit

16:                                               ; preds = %13
  tail call void @_Py_Dealloc(ptr noundef nonnull %10)
  br label %_ZL10_Py_DECREFP7_object.exit

_ZL10_Py_DECREFP7_object.exit:                    ; preds = %16, %13, %12
  %17 = load i64, ptr %8, align 8, !tbaa !33
  %18 = add nsw i64 %17, -1
  store i64 %18, ptr %8, align 8, !tbaa !33
  %.not.i11 = icmp eq i64 %18, 0
  br i1 %.not.i11, label %19, label %_ZL10_Py_DECREFP7_object.exit12

19:                                               ; preds = %_ZL10_Py_DECREFP7_object.exit
  tail call void @_Py_Dealloc(ptr noundef nonnull %8)
  br label %_ZL10_Py_DECREFP7_object.exit12

_ZL10_Py_DECREFP7_object.exit12:                  ; preds = %_ZL10_Py_DECREFP7_object.exit, %19
  tail call void @PyGILState_Release(i32 noundef %6)
  ret void
}